; Function Attrs: nounwind uwtable
define ptr @initialize_Lean_Elab_Tactic_Conv(i8 noundef zeroext %0, ptr noundef readnone captures(none) %1) local_unnamed_addr #0 {
  %.b36 = load i1, ptr @_G_initialized, align 1
  br i1 %.b36, label %3, label %10

3:                                                ; preds = %2
  tail call void @lean_inc_heartbeat() #4
  %4 = tail call noalias ptr @mi_malloc_small(i64 noundef 24) #4
  %5 = icmp eq ptr %4, null
  br i1 %5, label %6, label %lean_io_result_mk_ok.exit

6:                                                ; preds = %3
  tail call void @lean_internal_panic_out_of_memory() #5
  unreachable

lean_io_result_mk_ok.exit:                        ; preds = %3
  %7 = getelementptr inbounds nuw i8, ptr %4, i64 4
  store i32 1, ptr %4, align 4, !tbaa !4
  store i32 131096, ptr %7, align 4
  %8 = getelementptr inbounds nuw i8, ptr %4, i64 8
  store ptr inttoptr (i64 1 to ptr), ptr %8, align 8, !tbaa !9
  %9 = getelementptr inbounds nuw i8, ptr %4, i64 16
  store ptr inttoptr (i64 1 to ptr), ptr %9, align 8, !tbaa !9
  br label %102

10:                                               ; preds = %2
  store i1 true, ptr @_G_initialized, align 1
  %11 = tail call ptr @initialize_Lean_Elab_Tactic_Conv_Basic(i8 noundef zeroext %0, ptr noundef nonnull inttoptr (i64 1 to ptr)) #4
  %12 = getelementptr i8, ptr %11, i64 4
  %.val = load i32, ptr %12, align 4
  %.mask.i = and i32 %.val, -16777216
  %13 = icmp eq i32 %.mask.i, 16777216
  br i1 %13, label %102, label %14

14:                                               ; preds = %10
  %15 = load i32, ptr %11, align 4, !tbaa !4
  %16 = icmp sgt i32 %15, 1
  br i1 %16, label %17, label %19, !prof !11

17:                                               ; preds = %14
  %18 = add nsw i32 %15, -1
  store i32 %18, ptr %11, align 4, !tbaa !4
  br label %lean_dec_ref.exit

19:                                               ; preds = %14
  %.not.i = icmp eq i32 %15, 0
  br i1 %.not.i, label %lean_dec_ref.exit, label %20

20:                                               ; preds = %19
  tail call void @lean_dec_ref_cold(ptr noundef nonnull %11) #4
  br label %lean_dec_ref.exit

lean_dec_ref.exit:                                ; preds = %17, %19, %20
  %21 = tail call ptr @initialize_Lean_Elab_Tactic_Conv_Congr(i8 noundef zeroext %0, ptr noundef nonnull inttoptr (i64 1 to ptr)) #4
  %22 = getelementptr i8, ptr %21, i64 4
  %.val53 = load i32, ptr %22, align 4
  %.mask.i61 = and i32 %.val53, -16777216
  %23 = icmp eq i32 %.mask.i61, 16777216
  br i1 %23, label %102, label %24

24:                                               ; preds = %lean_dec_ref.exit
  %25 = load i32, ptr %21, align 4, !tbaa !4
  %26 = icmp sgt i32 %25, 1
  br i1 %26, label %27, label %29, !prof !11

27:                                               ; preds = %24
  %28 = add nsw i32 %25, -1
  store i32 %28, ptr %21, align 4, !tbaa !4
  br label %lean_dec_ref.exit38

29:                                               ; preds = %24
  %.not.i37 = icmp eq i32 %25, 0
  br i1 %.not.i37, label %lean_dec_ref.exit38, label %30

30:                                               ; preds = %29
  tail call void @lean_dec_ref_cold(ptr noundef nonnull %21) #4
  br label %lean_dec_ref.exit38

lean_dec_ref.exit38:                              ; preds = %27, %29, %30
  %31 = tail call ptr @initialize_Lean_Elab_Tactic_Conv_Rewrite(i8 noundef zeroext %0, ptr noundef nonnull inttoptr (i64 1 to ptr)) #4
  %32 = getelementptr i8, ptr %31, i64 4
  %.val54 = load i32, ptr %32, align 4
  %.mask.i62 = and i32 %.val54, -16777216
  %33 = icmp eq i32 %.mask.i62, 16777216
  br i1 %33, label %102, label %34

34:                                               ; preds = %lean_dec_ref.exit38
  %35 = load i32, ptr %31, align 4, !tbaa !4
  %36 = icmp sgt i32 %35, 1
  br i1 %36, label %37, label %39, !prof !11

37:                                               ; preds = %34
  %38 = add nsw i32 %35, -1
  store i32 %38, ptr %31, align 4, !tbaa !4
  br label %lean_dec_ref.exit40

39:                                               ; preds = %34
  %.not.i39 = icmp eq i32 %35, 0
  br i1 %.not.i39, label %lean_dec_ref.exit40, label %40

40:                                               ; preds = %39
  tail call void @lean_dec_ref_cold(ptr noundef nonnull %31) #4
  br label %lean_dec_ref.exit40

lean_dec_ref.exit40:                              ; preds = %37, %39, %40
  %41 = tail call ptr @initialize_Lean_Elab_Tactic_Conv_Change(i8 noundef zeroext %0, ptr noundef nonnull inttoptr (i64 1 to ptr)) #4
  %42 = getelementptr i8, ptr %41, i64 4
  %.val55 = load i32, ptr %42, align 4
  %.mask.i63 = and i32 %.val55, -16777216
  %43 = icmp eq i32 %.mask.i63, 16777216
  br i1 %43, label %102, label %44

44:                                               ; preds = %lean_dec_ref.exit40
  %45 = load i32, ptr %41, align 4, !tbaa !4
  %46 = icmp sgt i32 %45, 1
  br i1 %46, label %47, label %49, !prof !11

47:                                               ; preds = %44
  %48 = add nsw i32 %45, -1
  store i32 %48, ptr %41, align 4, !tbaa !4
  br label %lean_dec_ref.exit42

49:                                               ; preds = %44
  %.not.i41 = icmp eq i32 %45, 0
  br i1 %.not.i41, label %lean_dec_ref.exit42, label %50

50:                                               ; preds = %49
  tail call void @lean_dec_ref_cold(ptr noundef nonnull %41) #4
  br label %lean_dec_ref.exit42

lean_dec_ref.exit42:                              ; preds = %47, %49, %50
  %51 = tail call ptr @initialize_Lean_Elab_Tactic_Conv_Lets(i8 noundef zeroext %0, ptr noundef nonnull inttoptr (i64 1 to ptr)) #4
  %52 = getelementptr i8, ptr %51, i64 4
  %.val56 = load i32, ptr %52, align 4
  %.mask.i64 = and i32 %.val56, -16777216
  %53 = icmp eq i32 %.mask.i64, 16777216
  br i1 %53, label %102, label %54

54:                                               ; preds = %lean_dec_ref.exit42
  %55 = load i32, ptr %51, align 4, !tbaa !4
  %56 = icmp sgt i32 %55, 1
  br i1 %56, label %57, label %59, !prof !11

57:                                               ; preds = %54
  %58 = add nsw i32 %55, -1
  store i32 %58, ptr %51, align 4, !tbaa !4
  br label %lean_dec_ref.exit44

59:                                               ; preds = %54
  %.not.i43 = icmp eq i32 %55, 0
  br i1 %.not.i43, label %lean_dec_ref.exit44, label %60

60:                                               ; preds = %59
  tail call void @lean_dec_ref_cold(ptr noundef nonnull %51) #4
  br label %lean_dec_ref.exit44

lean_dec_ref.exit44:                              ; preds = %57, %59, %60
  %61 = tail call ptr @initialize_Lean_Elab_Tactic_Conv_Simp(i8 noundef zeroext %0, ptr noundef nonnull inttoptr (i64 1 to ptr)) #4
  %62 = getelementptr i8, ptr %61, i64 4
  %.val57 = load i32, ptr %62, align 4
  %.mask.i65 = and i32 %.val57, -16777216
  %63 = icmp eq i32 %.mask.i65, 16777216
  br i1 %63, label %102, label %64

64:                                               ; preds = %lean_dec_ref.exit44
  %65 = load i32, ptr %61, align 4, !tbaa !4
  %66 = icmp sgt i32 %65, 1
  br i1 %66, label %67, label %69, !prof !11

67:                                               ; preds = %64
  %68 = add nsw i32 %65, -1
  store i32 %68, ptr %61, align 4, !tbaa !4
  br label %lean_dec_ref.exit46

69:                                               ; preds = %64
  %.not.i45 = icmp eq i32 %65, 0
  br i1 %.not.i45, label %lean_dec_ref.exit46, label %70

70:                                               ; preds = %69
  tail call void @lean_dec_ref_cold(ptr noundef nonnull %61) #4
  br label %lean_dec_ref.exit46

lean_dec_ref.exit46:                              ; preds = %67, %69, %70
  %71 = tail call ptr @initialize_Lean_Elab_Tactic_Conv_Pattern(i8 noundef zeroext %0, ptr noundef nonnull inttoptr (i64 1 to ptr)) #4
  %72 = getelementptr i8, ptr %71, i64 4
  %.val58 = load i32, ptr %72, align 4
  %.mask.i66 = and i32 %.val58, -16777216
  %73 = icmp eq i32 %.mask.i66, 16777216
  br i1 %73, label %102, label %74

74:                                               ; preds = %lean_dec_ref.exit46
  %75 = load i32, ptr %71, align 4, !tbaa !4
  %76 = icmp sgt i32 %75, 1
  br i1 %76, label %77, label %79, !prof !11

77:                                               ; preds = %74
  %78 = add nsw i32 %75, -1
  store i32 %78, ptr %71, align 4, !tbaa !4
  br label %lean_dec_ref.exit48

79:                                               ; preds = %74
  %.not.i47 = icmp eq i32 %75, 0
  br i1 %.not.i47, label %lean_dec_ref.exit48, label %80

80:                                               ; preds = %79
  tail call void @lean_dec_ref_cold(ptr noundef nonnull %71) #4
  br label %lean_dec_ref.exit48

lean_dec_ref.exit48:                              ; preds = %77, %79, %80
  %81 = tail call ptr @initialize_Lean_Elab_Tactic_Conv_Delta(i8 noundef zeroext %0, ptr noundef nonnull inttoptr (i64 1 to ptr)) #4
  %82 = getelementptr i8, ptr %81, i64 4
  %.val59 = load i32, ptr %82, align 4
  %.mask.i67 = and i32 %.val59, -16777216
  %83 = icmp eq i32 %.mask.i67, 16777216
  br i1 %83, label %102, label %84

84:                                               ; preds = %lean_dec_ref.exit48
  %85 = load i32, ptr %81, align 4, !tbaa !4
  %86 = icmp sgt i32 %85, 1
  br i1 %86, label %87, label %89, !prof !11

87:                                               ; preds = %84
  %88 = add nsw i32 %85, -1
  store i32 %88, ptr %81, align 4, !tbaa !4
  br label %lean_dec_ref.exit50

89:                                               ; preds = %84
  %.not.i49 = icmp eq i32 %85, 0
  br i1 %.not.i49, label %lean_dec_ref.exit50, label %90

90:                                               ; preds = %89
  tail call void @lean_dec_ref_cold(ptr noundef nonnull %81) #4
  br label %lean_dec_ref.exit50

lean_dec_ref.exit50:                              ; preds = %87, %89, %90
  %91 = tail call ptr @initialize_Lean_Elab_Tactic_Conv_Unfold(i8 noundef zeroext %0, ptr noundef nonnull inttoptr (i64 1 to ptr)) #4
  %92 = getelementptr i8, ptr %91, i64 4
  %.val60 = load i32, ptr %92, align 4
  %.mask.i68 = and i32 %.val60, -16777216
  %93 = icmp eq i32 %.mask.i68, 16777216
  br i1 %93, label %102, label %94

94:                                               ; preds = %lean_dec_ref.exit50
  %95 = load i32, ptr %91, align 4, !tbaa !4
  %96 = icmp sgt i32 %95, 1
  br i1 %96, label %97, label %99, !prof !11

97:                                               ; preds = %94
  %98 = add nsw i32 %95, -1
  store i32 %98, ptr %91, align 4, !tbaa !4
  br label %lean_dec_ref.exit52

99:                                               ; preds = %94
  %.not.i51 = icmp eq i32 %95, 0
  br i1 %.not.i51, label %lean_dec_ref.exit52, label %100

100:                                              ; preds = %99
  tail call void @lean_dec_ref_cold(ptr noundef nonnull %91) #4
  br label %lean_dec_ref.exit52

lean_dec_ref.exit52:                              ; preds = %97, %99, %100
  %101 = tail call fastcc ptr @lean_io_result_mk_ok()
  br label %102

102:                                              ; preds = %lean_dec_ref.exit50, %lean_dec_ref.exit48, %lean_dec_ref.exit46, %lean_dec_ref.exit44, %lean_dec_ref.exit42, %lean_dec_ref.exit40, %lean_dec_ref.exit38, %lean_dec_ref.exit, %10, %lean_dec_ref.exit52, %lean_io_result_mk_ok.exit
  %.0 = phi ptr [ %4, %lean_io_result_mk_ok.exit ], [ %101, %lean_dec_ref.exit52 ], [ %11, %10 ], [ %21, %lean_dec_ref.exit ], [ %31, %lean_dec_ref.exit38 ], [ %41, %lean_dec_ref.exit40 ], [ %51, %lean_dec_ref.exit42 ], [ %61, %lean_dec_ref.exit44 ], [ %71, %lean_dec_ref.exit46 ], [ %81, %lean_dec_ref.exit48 ], [ %91, %lean_dec_ref.exit50 ]
  ret ptr %.0
}